; Function Attrs: mustprogress ssp uwtable
define hidden void @_ZN6open3d1t8geometry36pybind_voxel_block_grid_declarationsERN8pybind117module_E(ptr noundef nonnull readonly align 8 captures(none) dereferenceable(8) %0) local_unnamed_addr #7 personality ptr @__gxx_personality_v0 {
  %2 = alloca %"class.pybind11::class_", align 8
  call void @llvm.lifetime.start.p0(i64 8, ptr nonnull %2) #33
  %.sroa.0.0.copyload = load ptr, ptr %0, align 8
  call void @_ZN8pybind116class_IN6open3d1t8geometry14VoxelBlockGridEJEEC2IJA224_cEEENS_6handleEPKcDpRKT_(ptr noundef nonnull align 8 dereferenceable(8) %2, ptr %.sroa.0.0.copyload, ptr noundef nonnull @.str, ptr noundef nonnull align 1 dereferenceable(224) @.str.6)
  %3 = load ptr, ptr %2, align 8, !tbaa !152
  %.not.i.i.i = icmp eq ptr %3, null
  br i1 %.not.i.i.i, label %_ZN8pybind116objectD2Ev.exit, label %4

4:                                                ; preds = %1
  %5 = load i64, ptr %3, align 8, !tbaa !151
  %6 = and i64 %5, 2147483648
  %.not2.i.i.i = icmp eq i64 %6, 0
  br i1 %.not2.i.i.i, label %7, label %_ZN8pybind116objectD2Ev.exit

7:                                                ; preds = %4
  %8 = add nsw i64 %5, -1
  store i64 %8, ptr %3, align 8, !tbaa !151
  %9 = icmp eq i64 %8, 0
  br i1 %9, label %10, label %_ZN8pybind116objectD2Ev.exit

10:                                               ; preds = %7
  invoke void @_Py_Dealloc(ptr noundef nonnull %3)
          to label %_ZN8pybind116objectD2Ev.exit unwind label %11

11:                                               ; preds = %10
  %12 = landingpad { ptr, i32 }
          catch ptr null
  %13 = extractvalue { ptr, i32 } %12, 0
  call void @__clang_call_terminate(ptr %13) #34
  unreachable

_ZN8pybind116objectD2Ev.exit:                     ; preds = %1, %4, %7, %10
  call void @llvm.lifetime.end.p0(i64 8, ptr nonnull %2) #33
  ret void
}